target datalayout = "e-m:e-p270:32:32-p271:32:32-p272:64:64-i64:64-i128:128-f80:128-n8:16:32:64-S128"
target triple = "x86_64-pc-linux-gnu"

%struct.SDL_Touch = type { i64, i32, i32, i32, ptr, ptr }

@SDL_num_touch = internal global i32 0, align 4
@SDL_touchDevices = internal global ptr null, align 8

; Function Attrs: nounwind uwtable
define hidden ptr @SDL_GetTouchDevices_REAL(ptr noundef %0) #0 {
  %2 = alloca ptr, align 8
  %3 = alloca i32, align 4
  %4 = alloca ptr, align 8
  %5 = alloca i32, align 4
  store ptr %0, ptr %2, align 8
  %6 = load ptr, ptr %2, align 8
  %7 = icmp ne ptr %6, null
  br i1 %7, label %8, label %10

8:                                                ; preds = %1
  %9 = load ptr, ptr %2, align 8
  store i32 0, ptr %9, align 4
  br label %10

10:                                               ; preds = %8, %1
  call void @llvm.lifetime.start.p0(i64 4, ptr %3) #5
  %11 = load i32, ptr @SDL_num_touch, align 4
  store i32 %11, ptr %3, align 4
  call void @llvm.lifetime.start.p0(i64 8, ptr %4) #5
  %12 = load i32, ptr %3, align 4
  %13 = add nsw i32 %12, 1
  %14 = sext i32 %13 to i64
  %15 = mul i64 8, %14
  %16 = call noalias ptr @SDL_malloc_REAL(i64 noundef %15)
  store ptr %16, ptr %4, align 8
  %17 = load ptr, ptr %4, align 8
  %18 = icmp ne ptr %17, null
  br i1 %18, label %19, label %51

19:                                               ; preds = %10
  call void @llvm.lifetime.start.p0(i64 4, ptr %5) #5
  store i32 0, ptr %5, align 4
  br label %20

20:                                               ; preds = %37, %19
  %21 = load i32, ptr %5, align 4
  %22 = load i32, ptr %3, align 4
  %23 = icmp slt i32 %21, %22
  br i1 %23, label %25, label %24

24:                                               ; preds = %20
  call void @llvm.lifetime.end.p0(i64 4, ptr %5) #5
  br label %40

25:                                               ; preds = %20
  %26 = load ptr, ptr @SDL_touchDevices, align 8
  %27 = load i32, ptr %5, align 4
  %28 = sext i32 %27 to i64
  %29 = getelementptr inbounds ptr, ptr %26, i64 %28
  %30 = load ptr, ptr %29, align 8
  %31 = getelementptr inbounds nuw %struct.SDL_Touch, ptr %30, i32 0, i32 0
  %32 = load i64, ptr %31, align 8
  %33 = load ptr, ptr %4, align 8
  %34 = load i32, ptr %5, align 4
  %35 = sext i32 %34 to i64
  %36 = getelementptr inbounds i64, ptr %33, i64 %35
  store i64 %32, ptr %36, align 8
  br label %37

37:                                               ; preds = %25
  %38 = load i32, ptr %5, align 4
  %39 = add nsw i32 %38, 1
  store i32 %39, ptr %5, align 4
  br label %20, !llvm.loop !3

40:                                               ; preds = %24
  %41 = load ptr, ptr %4, align 8
  %42 = load i32, ptr %3, align 4
  %43 = sext i32 %42 to i64
  %44 = getelementptr inbounds i64, ptr %41, i64 %43
  store i64 0, ptr %44, align 8
  %45 = load ptr, ptr %2, align 8
  %46 = icmp ne ptr %45, null
  br i1 %46, label %47, label %50

47:                                               ; preds = %40
  %48 = load i32, ptr @SDL_num_touch, align 4
  %49 = load ptr, ptr %2, align 8
  store i32 %48, ptr %49, align 4
  br label %50

50:                                               ; preds = %47, %40
  br label %51

51:                                               ; preds = %50, %10
  %52 = load ptr, ptr %4, align 8
  call void @llvm.lifetime.end.p0(i64 8, ptr %4) #5
  call void @llvm.lifetime.end.p0(i64 4, ptr %3) #5
  ret ptr %52
}