; Function Attrs: nounwind uwtable
define hidden noalias ptr @SDL_GetTouchDevices_REAL(ptr noundef writeonly captures(address_is_null) %0) local_unnamed_addr #2 {
  %.not = icmp eq ptr %0, null
  br i1 %.not, label %3, label %2

2:                                                ; preds = %1
  store i32 0, ptr %0, align 4
  br label %3

3:                                                ; preds = %2, %1
  %4 = load i32, ptr @SDL_num_touch, align 4
  %5 = add nsw i32 %4, 1
  %6 = sext i32 %5 to i64
  %7 = shl nsw i64 %6, 3
  %8 = tail call noalias ptr @SDL_malloc_REAL(i64 noundef %7) #7
  %.not17 = icmp eq ptr %8, null
  br i1 %.not17, label %20, label %.preheader

.preheader:                                       ; preds = %3
  %9 = icmp sgt i32 %4, 0
  br i1 %9, label %.lr.ph, label %._crit_edge

.lr.ph:                                           ; preds = %.preheader
  %10 = load ptr, ptr @SDL_touchDevices, align 8
  %wide.trip.count = zext nneg i32 %4 to i64
  br label %13

._crit_edge:                                      ; preds = %13, %.preheader
  %11 = sext i32 %4 to i64
  %12 = getelementptr inbounds i64, ptr %8, i64 %11
  store i64 0, ptr %12, align 8
  br i1 %.not, label %20, label %18

13:                                               ; preds = %.lr.ph, %13
  %indvars.iv = phi i64 [ 0, %.lr.ph ], [ %indvars.iv.next, %13 ]
  %14 = getelementptr inbounds nuw ptr, ptr %10, i64 %indvars.iv
  %15 = load ptr, ptr %14, align 8
  %16 = load i64, ptr %15, align 8
  %17 = getelementptr inbounds nuw i64, ptr %8, i64 %indvars.iv
  store i64 %16, ptr %17, align 8
  %indvars.iv.next = add nuw nsw i64 %indvars.iv, 1
  %exitcond.not = icmp eq i64 %indvars.iv.next, %wide.trip.count
  br i1 %exitcond.not, label %._crit_edge, label %13, !llvm.loop !3

18:                                               ; preds = %._crit_edge
  %19 = load i32, ptr @SDL_num_touch, align 4
  store i32 %19, ptr %0, align 4
  br label %20

20:                                               ; preds = %._crit_edge, %18, %3
  ret ptr %8
}